target datalayout = "e-m:e-p270:32:32-p271:32:32-p272:64:64-i64:64-i128:128-f80:128-n8:16:32:64-S128"
target triple = "x86_64-pc-linux-gnu"

%struct.Wlc_Ntk_t_ = type { ptr, ptr, %struct.Vec_Int_t_, %struct.Vec_Int_t_, %struct.Vec_Int_t_, %struct.Vec_Int_t_, %struct.Vec_Int_t_, %struct.Vec_Int_t_, ptr, ptr, ptr, [60 x i32], [60 x i32], i32, i32, i32, i32, i32, ptr, i32, i32, ptr, ptr, ptr, ptr, ptr, %struct.Vec_Int_t_, %struct.Vec_Int_t_, i32, %struct.Vec_Int_t_, %struct.Vec_Int_t_, %struct.Vec_Int_t_, %struct.Vec_Int_t_, %struct.Vec_Int_t_, %struct.Vec_Int_t_ }
%struct.Vec_Int_t_ = type { i32, i32, ptr }

; Function Attrs: nounwind uwtable
define i32 @Wlc_NtkDcFlopNum(ptr noundef %0) #0 {
  %2 = alloca i32, align 4
  %3 = alloca ptr, align 8
  %4 = alloca i32, align 4
  %5 = alloca i32, align 4
  %6 = alloca i32, align 4
  store ptr %0, ptr %3, align 8
  store i32 0, ptr %6, align 4
  %7 = load ptr, ptr %3, align 8
  %8 = getelementptr inbounds %struct.Wlc_Ntk_t_, ptr %7, i32 0, i32 10
  %9 = load ptr, ptr %8, align 8
  %10 = icmp eq ptr %9, null
  br i1 %10, label %11, label %12

11:                                               ; preds = %1
  store i32 0, ptr %2, align 4
  br label %52

12:                                               ; preds = %1
  %13 = load ptr, ptr %3, align 8
  %14 = getelementptr inbounds %struct.Wlc_Ntk_t_, ptr %13, i32 0, i32 10
  %15 = load ptr, ptr %14, align 8
  %16 = call i64 @strlen(ptr noundef %15) #13
  %17 = trunc i64 %16 to i32
  store i32 %17, ptr %5, align 4
  store i32 0, ptr %4, align 4
  br label %18

18:                                               ; preds = %47, %12
  %19 = load i32, ptr %4, align 4
  %20 = load i32, ptr %5, align 4
  %21 = icmp slt i32 %19, %20
  br i1 %21, label %22, label %50

22:                                               ; preds = %18
  %23 = load ptr, ptr %3, align 8
  %24 = getelementptr inbounds %struct.Wlc_Ntk_t_, ptr %23, i32 0, i32 10
  %25 = load ptr, ptr %24, align 8
  %26 = load i32, ptr %4, align 4
  %27 = sext i32 %26 to i64
  %28 = getelementptr inbounds i8, ptr %25, i64 %27
  %29 = load i8, ptr %28, align 1
  %30 = sext i8 %29 to i32
  %31 = icmp eq i32 %30, 120
  br i1 %31, label %42, label %32

32:                                               ; preds = %22
  %33 = load ptr, ptr %3, align 8
  %34 = getelementptr inbounds %struct.Wlc_Ntk_t_, ptr %33, i32 0, i32 10
  %35 = load ptr, ptr %34, align 8
  %36 = load i32, ptr %4, align 4
  %37 = sext i32 %36 to i64
  %38 = getelementptr inbounds i8, ptr %35, i64 %37
  %39 = load i8, ptr %38, align 1
  %40 = sext i8 %39 to i32
  %41 = icmp eq i32 %40, 88
  br label %42

42:                                               ; preds = %32, %22
  %43 = phi i1 [ true, %22 ], [ %41, %32 ]
  %44 = zext i1 %43 to i32
  %45 = load i32, ptr %6, align 4
  %46 = add nsw i32 %45, %44
  store i32 %46, ptr %6, align 4
  br label %47

47:                                               ; preds = %42
  %48 = load i32, ptr %4, align 4
  %49 = add nsw i32 %48, 1
  store i32 %49, ptr %4, align 4
  br label %18, !llvm.loop !85

50:                                               ; preds = %18
  %51 = load i32, ptr %6, align 4
  store i32 %51, ptr %2, align 4
  br label %52

52:                                               ; preds = %50, %11
  %53 = load i32, ptr %2, align 4
  ret i32 %53
}