; Function Attrs: nofree nounwind memory(read, inaccessiblemem: none) uwtable
define i32 @Wlc_NtkDcFlopNum(ptr noundef readonly captures(none) %0) local_unnamed_addr #17 {
  %2 = getelementptr inbounds nuw i8, ptr %0, i64 128
  %3 = load ptr, ptr %2, align 8
  %4 = icmp eq ptr %3, null
  br i1 %4, label %.loopexit, label %5

5:                                                ; preds = %1
  %6 = tail call i64 @strlen(ptr noundef nonnull dereferenceable(1) %3) #28
  %7 = trunc i64 %6 to i32
  %8 = icmp sgt i32 %7, 0
  br i1 %8, label %.lr.ph.preheader, label %.loopexit

.lr.ph.preheader:                                 ; preds = %5
  %wide.trip.count = and i64 %6, 2147483647
  br label %.lr.ph

.lr.ph:                                           ; preds = %.lr.ph.preheader, %.lr.ph
  %indvars.iv = phi i64 [ 0, %.lr.ph.preheader ], [ %indvars.iv.next, %.lr.ph ]
  %.016 = phi i32 [ 0, %.lr.ph.preheader ], [ %13, %.lr.ph ]
  %9 = getelementptr inbounds nuw i8, ptr %3, i64 %indvars.iv
  %10 = load i8, ptr %9, align 1
  %11 = and i8 %10, -33
  %narrow = icmp eq i8 %11, 88
  %12 = zext i1 %narrow to i32
  %13 = add nuw nsw i32 %.016, %12
  %indvars.iv.next = add nuw nsw i64 %indvars.iv, 1
  %exitcond.not = icmp eq i64 %indvars.iv.next, %wide.trip.count
  br i1 %exitcond.not, label %.loopexit, label %.lr.ph, !llvm.loop !83

.loopexit:                                        ; preds = %.lr.ph, %5, %1
  %.011 = phi i32 [ 0, %1 ], [ 0, %5 ], [ %13, %.lr.ph ]
  ret i32 %.011
}